target datalayout = "e-m:e-p270:32:32-p271:32:32-p272:64:64-i64:64-i128:128-f80:128-n8:16:32:64-S128"
target triple = "x86_64-pc-linux-gnu"

%struct.anon.8 = type { i32, ptr }
%struct.rb_vm_struct = type { i64, %struct.anon, ptr, i64, %struct.ccan_list_head, i32, i8, i64, ptr, [5 x i64], i64, i64, i64, i64, i64, i64, i64, i64, i64, ptr, ptr, ptr, %struct.anon.3, ptr, i32, %struct.ccan_list_head, %union.pthread_mutex_t, i64, i64, i64, i64, i32, %struct.anon.4, ptr, ptr, ptr, ptr, ptr, ptr, ptr, ptr, i64, [1023 x ptr], %struct.anon.5 }
%struct.anon = type { %struct.ccan_list_head, i32, i32, ptr, ptr, %struct.anon.0, %struct.anon.2 }
%struct.anon.0 = type { %union.pthread_mutex_t, ptr, i32, %union.pthread_cond_t, i8 }
%union.pthread_cond_t = type { %struct.__pthread_cond_s }
%struct.__pthread_cond_s = type { %union.__atomic_wide_counter, %union.__atomic_wide_counter, [2 x i32], [2 x i32], i32, i32, [2 x i32] }
%union.__atomic_wide_counter = type { i64 }
%struct.anon.2 = type { %union.pthread_mutex_t, ptr, i8, %union.pthread_cond_t, i32, i32, i32, i32, %struct.ccan_list_head, i32, %struct.ccan_list_head, %struct.ccan_list_head, %struct.ccan_list_head, i8, %union.pthread_cond_t, %union.pthread_cond_t, i8, i32, i32 }
%struct.anon.3 = type { [65 x i64] }
%struct.ccan_list_head = type { %struct.ccan_list_node }
%struct.ccan_list_node = type { ptr, ptr }
%union.pthread_mutex_t = type { %struct.__pthread_mutex_s }
%struct.__pthread_mutex_s = type { i32, i32, i32, i32, i32, i16, i16, %struct.__pthread_internal_list }
%struct.__pthread_internal_list = type { ptr, ptr }
%struct.anon.4 = type { ptr, ptr }
%struct.anon.5 = type { i64, i64, i64, i64 }
%struct.RBasic = type { i64, i64 }
%struct.RString = type { %struct.RBasic, i64, %union.anon.15 }
%union.anon.15 = type { %struct.anon.16 }
%struct.anon.16 = type { ptr, %union.anon.17 }
%union.anon.17 = type { i64 }

@origarg = internal global %struct.anon.8 zeroinitializer, align 8
@ruby_current_vm_ptr = external global ptr, align 8
@rb_eRuntimeError = external global i64, align 8
@.str.138 = private unnamed_addr constant [19 x i8] c"$0 not initialized\00", align 1
@.str.139 = private unnamed_addr constant [5 x i8] c"%.*s\00", align 1

; Function Attrs: inlinehint nounwind sspstrong uwtable
define internal i32 @rb_long2int_inline(i64 noundef %0) #5 {
  %2 = alloca i64, align 8
  %3 = alloca i32, align 4
  store i64 %0, ptr %2, align 8, !tbaa !42
  call void @llvm.lifetime.start.p0(i64 4, ptr %3) #24
  %4 = load i64, ptr %2, align 8, !tbaa !42
  %5 = trunc i64 %4 to i32
  store i32 %5, ptr %3, align 4, !tbaa !12
  %6 = load i32, ptr %3, align 4, !tbaa !12
  %7 = sext i32 %6 to i64
  %8 = load i64, ptr %2, align 8, !tbaa !42
  %9 = icmp ne i64 %7, %8
  br i1 %9, label %10, label %12

10:                                               ; preds = %1
  %11 = load i64, ptr %2, align 8, !tbaa !42
  call void @rb_out_of_int(i64 noundef %11) #32
  unreachable

12:                                               ; preds = %1
  %13 = load i32, ptr %3, align 4, !tbaa !12
  call void @llvm.lifetime.end.p0(i64 4, ptr %3) #24
  ret i32 %13
}

; Function Attrs: inlinehint nounwind sspstrong willreturn memory(read) uwtable
define internal i64 @RSTRING_LEN(i64 noundef %0) #7 {
  %2 = alloca i64, align 8
  store i64 %0, ptr %2, align 8, !tbaa !42
  %3 = load i64, ptr %2, align 8, !tbaa !42
  %4 = inttoptr i64 %3 to ptr
  %5 = getelementptr inbounds nuw %struct.RString, ptr %4, i32 0, i32 1
  %6 = load i64, ptr %5, align 8, !tbaa !142
  ret i64 %6
}

; Function Attrs: inlinehint nounwind sspstrong uwtable
define internal i32 @RSTRING_LENINT(i64 noundef %0) #5 {
  %2 = alloca i64, align 8
  store i64 %0, ptr %2, align 8, !tbaa !42
  %3 = load i64, ptr %2, align 8, !tbaa !42
  %4 = call i64 @RSTRING_LEN(i64 noundef %3) #25
  %5 = call i32 @rb_long2int_inline(i64 noundef %4)
  ret i32 %5
}

; Function Attrs: inlinehint nounwind sspstrong uwtable
define internal ptr @rb_current_vm() #5 {
  %1 = load ptr, ptr @ruby_current_vm_ptr, align 8, !tbaa !47
  ret ptr %1
}

; Function Attrs: nounwind sspstrong uwtable
define internal i64 @ruby_setproctitle(i64 noundef %0) #0 {
  %2 = alloca i64, align 8
  %3 = alloca ptr, align 8
  store i64 %0, ptr %2, align 8, !tbaa !42
  call void @llvm.lifetime.start.p0(i64 8, ptr %3) #24
  %4 = call ptr @rb_string_value_cstr(ptr noundef %2)
  store ptr %4, ptr %3, align 8, !tbaa !7
  %5 = load i64, ptr %2, align 8, !tbaa !42
  %6 = call i32 @RSTRING_LENINT(i64 noundef %5)
  %7 = load ptr, ptr %3, align 8, !tbaa !7
  call void (ptr, ...) @setproctitle(ptr noundef @.str.139, i32 noundef %6, ptr noundef %7)
  %8 = load i64, ptr %2, align 8, !tbaa !42
  call void @llvm.lifetime.end.p0(i64 8, ptr %3) #24
  ret i64 %8
}

; Function Attrs: nounwind sspstrong uwtable
define internal void @set_arg0(i64 noundef %0, i64 noundef %1, ptr noundef %2) #0 {
  %4 = alloca i64, align 8
  %5 = alloca i64, align 8
  %6 = alloca ptr, align 8
  store i64 %0, ptr %4, align 8, !tbaa !42
  store i64 %1, ptr %5, align 8, !tbaa !42
  store ptr %2, ptr %6, align 8, !tbaa !72
  %7 = load ptr, ptr getelementptr inbounds nuw (%struct.anon.8, ptr @origarg, i32 0, i32 1), align 8, !tbaa !74
  %8 = icmp eq ptr %7, null
  br i1 %8, label %9, label %11

9:                                                ; preds = %3
  %10 = load i64, ptr @rb_eRuntimeError, align 8, !tbaa !42
  call void (i64, ptr, ...) @rb_raise(i64 noundef %10, ptr noundef @.str.138) #26
  unreachable

11:                                               ; preds = %3
  %12 = load i64, ptr %4, align 8, !tbaa !42
  %13 = call i64 @ruby_setproctitle(i64 noundef %12)
  %14 = call i64 @rb_str_new_frozen(i64 noundef %13)
  %15 = call ptr @rb_current_vm()
  %16 = getelementptr inbounds nuw %struct.rb_vm_struct, ptr %15, i32 0, i32 28
  store i64 %14, ptr %16, align 8, !tbaa !70
  ret void
}