; Function Attrs: nounwind sspstrong uwtable
define internal void @set_arg0(i64 noundef %0, i64 %1, ptr readnone captures(none) %2) #0 {
  %4 = alloca i64, align 8
  %5 = load ptr, ptr @origarg.1, align 8, !tbaa !73
  %6 = icmp eq ptr %5, null
  br i1 %6, label %7, label %9

7:                                                ; preds = %3
  %8 = load i64, ptr @rb_eRuntimeError, align 8, !tbaa !47
  tail call void (i64, ptr, ...) @rb_raise(i64 noundef %8, ptr noundef nonnull @.str.138) #26
  unreachable

9:                                                ; preds = %3
  call void @llvm.lifetime.start.p0(i64 8, ptr nonnull %4)
  store i64 %0, ptr %4, align 8, !tbaa !47
  %10 = call ptr @rb_string_value_cstr(ptr noundef nonnull %4) #25
  %11 = load i64, ptr %4, align 8, !tbaa !47
  %12 = inttoptr i64 %11 to ptr
  %13 = getelementptr inbounds nuw i8, ptr %12, i64 16
  %14 = load i64, ptr %13, align 8, !tbaa !68
  %15 = add i64 %14, 2147483648
  %.not.i.i.i = icmp ult i64 %15, 4294967296
  br i1 %.not.i.i.i, label %ruby_setproctitle.exit, label %16

16:                                               ; preds = %9
  call void @rb_out_of_int(i64 noundef %14) #27
  unreachable

ruby_setproctitle.exit:                           ; preds = %9
  %17 = trunc i64 %14 to i32
  call void (ptr, ...) @setproctitle(ptr noundef nonnull @.str.139, i32 noundef %17, ptr noundef %10) #25
  %18 = load i64, ptr %4, align 8, !tbaa !47
  call void @llvm.lifetime.end.p0(i64 8, ptr nonnull %4)
  %19 = call i64 @rb_str_new_frozen(i64 noundef %18) #25
  %20 = load ptr, ptr @ruby_current_vm_ptr, align 8, !tbaa !12
  %21 = getelementptr inbounds nuw i8, ptr %20, i64 1264
  store i64 %19, ptr %21, align 8, !tbaa !71
  ret void
}